target datalayout = "e-m:e-p270:32:32-p271:32:32-p272:64:64-i64:64-i128:128-f80:128-n8:16:32:64-S128"
target triple = "x86_64-pc-linux-gnu"

%struct.z_stream_s = type { ptr, i32, i64, ptr, i32, i64, ptr, ptr, ptr, ptr, ptr, i32, i64, i64 }
%struct.internal_state = type { ptr, i32, ptr, i64, ptr, i32, i32, ptr, i32, i8, i32, i32, i32, i32, ptr, i64, ptr, ptr, i32, i32, i32, i32, i32, i64, i32, i32, i32, i32, i32, i32, i32, i32, i32, i32, i32, i32, i32, [573 x %struct.ct_data_s], [61 x %struct.ct_data_s], [39 x %struct.ct_data_s], %struct.tree_desc_s, %struct.tree_desc_s, %struct.tree_desc_s, [16 x i16], [573 x i32], i32, i32, [573 x i8], ptr, i32, i32, ptr, i64, i64, i32, i32, i16, i32, i64 }
%struct.ct_data_s = type { %union.anon, %union.anon.0 }
%union.anon = type { i16 }
%union.anon.0 = type { i16 }
%struct.tree_desc_s = type { ptr, i32, ptr }

; Function Attrs: nounwind uwtable
define internal void @flush_pending(ptr noundef %0) #0 {
  %2 = alloca ptr, align 8
  %3 = alloca i32, align 4
  %4 = alloca ptr, align 8
  %5 = alloca i32, align 4
  store ptr %0, ptr %2, align 8, !tbaa !3
  call void @llvm.lifetime.start.p0(i64 4, ptr %3) #5
  call void @llvm.lifetime.start.p0(i64 8, ptr %4) #5
  %6 = load ptr, ptr %2, align 8, !tbaa !3
  %7 = getelementptr inbounds nuw %struct.z_stream_s, ptr %6, i32 0, i32 7
  %8 = load ptr, ptr %7, align 8, !tbaa !21
  store ptr %8, ptr %4, align 8, !tbaa !20
  %9 = load ptr, ptr %4, align 8, !tbaa !20
  call void @_tr_flush_bits(ptr noundef %9)
  %10 = load ptr, ptr %4, align 8, !tbaa !20
  %11 = getelementptr inbounds nuw %struct.internal_state, ptr %10, i32 0, i32 5
  %12 = load i32, ptr %11, align 8, !tbaa !78
  store i32 %12, ptr %3, align 4, !tbaa !8
  %13 = load i32, ptr %3, align 4, !tbaa !8
  %14 = load ptr, ptr %2, align 8, !tbaa !3
  %15 = getelementptr inbounds nuw %struct.z_stream_s, ptr %14, i32 0, i32 4
  %16 = load i32, ptr %15, align 8, !tbaa !99
  %17 = icmp ugt i32 %13, %16
  br i1 %17, label %18, label %22

18:                                               ; preds = %1
  %19 = load ptr, ptr %2, align 8, !tbaa !3
  %20 = getelementptr inbounds nuw %struct.z_stream_s, ptr %19, i32 0, i32 4
  %21 = load i32, ptr %20, align 8, !tbaa !99
  store i32 %21, ptr %3, align 4, !tbaa !8
  br label %22

22:                                               ; preds = %18, %1
  %23 = load i32, ptr %3, align 4, !tbaa !8
  %24 = icmp eq i32 %23, 0
  br i1 %24, label %25, label %26

25:                                               ; preds = %22
  store i32 1, ptr %5, align 4
  br label %74

26:                                               ; preds = %22
  %27 = load ptr, ptr %2, align 8, !tbaa !3
  %28 = getelementptr inbounds nuw %struct.z_stream_s, ptr %27, i32 0, i32 3
  %29 = load ptr, ptr %28, align 8, !tbaa !98
  %30 = load ptr, ptr %4, align 8, !tbaa !20
  %31 = getelementptr inbounds nuw %struct.internal_state, ptr %30, i32 0, i32 4
  %32 = load ptr, ptr %31, align 8, !tbaa !79
  %33 = load i32, ptr %3, align 4, !tbaa !8
  %34 = zext i32 %33 to i64
  call void @llvm.memcpy.p0.p0.i64(ptr align 1 %29, ptr align 1 %32, i64 %34, i1 false)
  %35 = load i32, ptr %3, align 4, !tbaa !8
  %36 = load ptr, ptr %2, align 8, !tbaa !3
  %37 = getelementptr inbounds nuw %struct.z_stream_s, ptr %36, i32 0, i32 3
  %38 = load ptr, ptr %37, align 8, !tbaa !98
  %39 = zext i32 %35 to i64
  %40 = getelementptr inbounds nuw i8, ptr %38, i64 %39
  store ptr %40, ptr %37, align 8, !tbaa !98
  %41 = load i32, ptr %3, align 4, !tbaa !8
  %42 = load ptr, ptr %4, align 8, !tbaa !20
  %43 = getelementptr inbounds nuw %struct.internal_state, ptr %42, i32 0, i32 4
  %44 = load ptr, ptr %43, align 8, !tbaa !79
  %45 = zext i32 %41 to i64
  %46 = getelementptr inbounds nuw i8, ptr %44, i64 %45
  store ptr %46, ptr %43, align 8, !tbaa !79
  %47 = load i32, ptr %3, align 4, !tbaa !8
  %48 = zext i32 %47 to i64
  %49 = load ptr, ptr %2, align 8, !tbaa !3
  %50 = getelementptr inbounds nuw %struct.z_stream_s, ptr %49, i32 0, i32 5
  %51 = load i64, ptr %50, align 8, !tbaa !75
  %52 = add i64 %51, %48
  store i64 %52, ptr %50, align 8, !tbaa !75
  %53 = load i32, ptr %3, align 4, !tbaa !8
  %54 = load ptr, ptr %2, align 8, !tbaa !3
  %55 = getelementptr inbounds nuw %struct.z_stream_s, ptr %54, i32 0, i32 4
  %56 = load i32, ptr %55, align 8, !tbaa !99
  %57 = sub i32 %56, %53
  store i32 %57, ptr %55, align 8, !tbaa !99
  %58 = load i32, ptr %3, align 4, !tbaa !8
  %59 = load ptr, ptr %4, align 8, !tbaa !20
  %60 = getelementptr inbounds nuw %struct.internal_state, ptr %59, i32 0, i32 5
  %61 = load i32, ptr %60, align 8, !tbaa !78
  %62 = sub i32 %61, %58
  store i32 %62, ptr %60, align 8, !tbaa !78
  %63 = load ptr, ptr %4, align 8, !tbaa !20
  %64 = getelementptr inbounds nuw %struct.internal_state, ptr %63, i32 0, i32 5
  %65 = load i32, ptr %64, align 8, !tbaa !78
  %66 = icmp eq i32 %65, 0
  br i1 %66, label %67, label %73

67:                                               ; preds = %26
  %68 = load ptr, ptr %4, align 8, !tbaa !20
  %69 = getelementptr inbounds nuw %struct.internal_state, ptr %68, i32 0, i32 2
  %70 = load ptr, ptr %69, align 8, !tbaa !45
  %71 = load ptr, ptr %4, align 8, !tbaa !20
  %72 = getelementptr inbounds nuw %struct.internal_state, ptr %71, i32 0, i32 4
  store ptr %70, ptr %72, align 8, !tbaa !79
  br label %73

73:                                               ; preds = %67, %26
  store i32 0, ptr %5, align 4
  br label %74

74:                                               ; preds = %73, %25
  call void @llvm.lifetime.end.p0(i64 8, ptr %4) #5
  call void @llvm.lifetime.end.p0(i64 4, ptr %3) #5
  %75 = load i32, ptr %5, align 4
  switch i32 %75, label %77 [
    i32 0, label %76
    i32 1, label %76
  ]

76:                                               ; preds = %74, %74
  ret void

77:                                               ; preds = %74
  unreachable
}