; Function Attrs: nounwind uwtable
define internal fastcc void @flush_pending(ptr noundef captures(none) %0) unnamed_addr #0 {
  %2 = getelementptr inbounds nuw i8, ptr %0, i64 56
  %3 = load ptr, ptr %2, align 8, !tbaa !16
  tail call void @_tr_flush_bits(ptr noundef %3) #10
  %4 = getelementptr inbounds nuw i8, ptr %3, i64 40
  %5 = load i32, ptr %4, align 8, !tbaa !51
  %6 = getelementptr inbounds nuw i8, ptr %0, i64 32
  %7 = load i32, ptr %6, align 8, !tbaa !90
  %spec.select = tail call i32 @llvm.umin.i32(i32 %5, i32 %7)
  %8 = icmp eq i32 %spec.select, 0
  br i1 %8, label %30, label %9

9:                                                ; preds = %1
  %10 = getelementptr inbounds nuw i8, ptr %0, i64 24
  %11 = load ptr, ptr %10, align 8, !tbaa !89
  %12 = getelementptr inbounds nuw i8, ptr %3, i64 32
  %13 = load ptr, ptr %12, align 8, !tbaa !52
  %14 = zext i32 %spec.select to i64
  tail call void @llvm.memcpy.p0.p0.i64(ptr align 1 %11, ptr align 1 %13, i64 %14, i1 false)
  %15 = load ptr, ptr %10, align 8, !tbaa !89
  %16 = getelementptr inbounds nuw i8, ptr %15, i64 %14
  store ptr %16, ptr %10, align 8, !tbaa !89
  %17 = load ptr, ptr %12, align 8, !tbaa !52
  %18 = getelementptr inbounds nuw i8, ptr %17, i64 %14
  store ptr %18, ptr %12, align 8, !tbaa !52
  %19 = getelementptr inbounds nuw i8, ptr %0, i64 40
  %20 = load i64, ptr %19, align 8, !tbaa !101
  %21 = add i64 %20, %14
  store i64 %21, ptr %19, align 8, !tbaa !101
  %22 = load i32, ptr %6, align 8, !tbaa !90
  %23 = sub i32 %22, %spec.select
  store i32 %23, ptr %6, align 8, !tbaa !90
  %24 = load i32, ptr %4, align 8, !tbaa !51
  %25 = sub i32 %24, %spec.select
  store i32 %25, ptr %4, align 8, !tbaa !51
  %26 = icmp eq i32 %24, %spec.select
  br i1 %26, label %27, label %30

27:                                               ; preds = %9
  %28 = getelementptr inbounds nuw i8, ptr %3, i64 16
  %29 = load ptr, ptr %28, align 8, !tbaa !40
  store ptr %29, ptr %12, align 8, !tbaa !52
  br label %30

30:                                               ; preds = %9, %27, %1
  ret void
}